target datalayout = "e-m:e-p270:32:32-p271:32:32-p272:64:64-i64:64-i128:128-f80:128-n8:16:32:64-S128"
target triple = "x86_64-pc-linux-gnu"

%"class.std::vector.0" = type { %"struct.std::_Vector_base.1" }
%"struct.std::_Vector_base.1" = type { %"struct.std::_Vector_base<zxing::Ref<zxing::qrcode::Version>, std::allocator<zxing::Ref<zxing::qrcode::Version>>>::_Vector_impl" }
%"struct.std::_Vector_base<zxing::Ref<zxing::qrcode::Version>, std::allocator<zxing::Ref<zxing::qrcode::Version>>>::_Vector_impl" = type { %"struct.std::_Vector_base<zxing::Ref<zxing::qrcode::Version>, std::allocator<zxing::Ref<zxing::qrcode::Version>>>::_Vector_impl_data" }
%"struct.std::_Vector_base<zxing::Ref<zxing::qrcode::Version>, std::allocator<zxing::Ref<zxing::qrcode::Version>>>::_Vector_impl_data" = type { ptr, ptr, ptr }
%"class.zxing::Ref" = type { ptr }
%"class.zxing::ReaderErrorHandler" = type { %"class.zxing::ErrorHandler" }
%"class.zxing::ErrorHandler" = type { ptr, i32, i32, %"class.std::__cxx11::basic_string" }
%"class.std::__cxx11::basic_string" = type { %"struct.std::__cxx11::basic_string<char>::_Alloc_hider", i64, %union.anon }
%"struct.std::__cxx11::basic_string<char>::_Alloc_hider" = type { ptr }
%union.anon = type { i64, [8 x i8] }

@_ZN5zxing6qrcode7Version8VERSIONSE = hidden global %"class.std::vector.0" zeroinitializer, align 8
@_ZN5zxing6qrcodeL10N_VERSIONSE = internal global i32 0, align 4
@.str = private unnamed_addr constant [39 x i8] c"versionNumber must be between 1 and 40\00", align 1
@_ZTVN5zxing12ErrorHandlerE = external unnamed_addr constant { [10 x ptr] }, align 8

; Function Attrs: mustprogress nounwind uwtable
define linkonce_odr hidden void @_ZN5zxing12ErrorHandlerD2Ev(ptr noundef nonnull align 8 dereferenceable(48) %0) unnamed_addr #0 comdat align 2 {
  %2 = alloca ptr, align 8
  store ptr %0, ptr %2, align 8
  %3 = load ptr, ptr %2, align 8
  store ptr getelementptr inbounds inrange(-16, 64) ({ [10 x ptr] }, ptr @_ZTVN5zxing12ErrorHandlerE, i32 0, i32 0, i32 2), ptr %3, align 8
  %4 = getelementptr inbounds %"class.zxing::ErrorHandler", ptr %3, i32 0, i32 3
  call void @_ZNSt7__cxx1112basic_stringIcSt11char_traitsIcESaIcEED1Ev(ptr noundef nonnull align 8 dereferenceable(32) %4) #4
  ret void
}

; Function Attrs: mustprogress nounwind uwtable
define linkonce_odr hidden noundef ptr @_ZNK5zxing3RefINS_6qrcode7VersionEEcvPS2_Ev(ptr noundef nonnull align 8 dereferenceable(8) %0) #0 comdat align 2 {
  %2 = alloca ptr, align 8
  store ptr %0, ptr %2, align 8
  %3 = load ptr, ptr %2, align 8
  %4 = getelementptr inbounds %"class.zxing::Ref", ptr %3, i32 0, i32 0
  %5 = load ptr, ptr %4, align 8
  ret ptr %5
}

; Function Attrs: mustprogress nounwind uwtable
define linkonce_odr hidden noundef nonnull align 8 dereferenceable(8) ptr @_ZNSt6vectorIN5zxing3RefINS0_6qrcode7VersionEEESaIS4_EEixEm(ptr noundef nonnull align 8 dereferenceable(24) %0, i64 noundef %1) #0 comdat align 2 {
  %3 = alloca ptr, align 8
  %4 = alloca i64, align 8
  store ptr %0, ptr %3, align 8
  store i64 %1, ptr %4, align 8
  %5 = load ptr, ptr %3, align 8
  %6 = getelementptr inbounds %"struct.std::_Vector_base.1", ptr %5, i32 0, i32 0
  %7 = getelementptr inbounds %"struct.std::_Vector_base<zxing::Ref<zxing::qrcode::Version>, std::allocator<zxing::Ref<zxing::qrcode::Version>>>::_Vector_impl_data", ptr %6, i32 0, i32 0
  %8 = load ptr, ptr %7, align 8
  %9 = load i64, ptr %4, align 8
  %10 = getelementptr inbounds %"class.zxing::Ref", ptr %8, i64 %9
  ret ptr %10
}

; Function Attrs: mustprogress nounwind uwtable
define linkonce_odr hidden void @_ZN5zxing18ReaderErrorHandlerD2Ev(ptr noundef nonnull align 8 dereferenceable(48) %0) unnamed_addr #0 comdat align 2 {
  %2 = alloca ptr, align 8
  store ptr %0, ptr %2, align 8
  %3 = load ptr, ptr %2, align 8
  call void @_ZN5zxing12ErrorHandlerD2Ev(ptr noundef nonnull align 8 dereferenceable(48) %3) #4
  ret void
}

; Function Attrs: mustprogress uwtable
define linkonce_odr hidden void @_ZN5zxing18ReaderErrorHandlerC2EPKc(ptr noundef nonnull align 8 dereferenceable(48) %0, ptr noundef %1) unnamed_addr #1 comdat align 2 personality ptr @__gxx_personality_v0 {
  %3 = alloca ptr, align 8
  %4 = alloca ptr, align 8
  %5 = alloca ptr, align 8
  %6 = alloca i32, align 4
  store ptr %0, ptr %3, align 8
  store ptr %1, ptr %4, align 8
  %7 = load ptr, ptr %3, align 8
  %8 = load ptr, ptr %4, align 8
  call void @_ZN5zxing12ErrorHandlerC2EPKc(ptr noundef nonnull align 8 dereferenceable(48) %7, ptr noundef %8)
  store ptr getelementptr inbounds inrange(-16, 64) ({ [10 x ptr] }, ptr @_ZTVN5zxing18ReaderErrorHandlerE, i32 0, i32 0, i32 2), ptr %7, align 8
  %9 = load ptr, ptr %7, align 8
  %10 = getelementptr inbounds ptr, ptr %9, i64 5
  %11 = load ptr, ptr %10, align 8
  invoke void %11(ptr noundef nonnull align 8 dereferenceable(48) %7)
          to label %12 unwind label %13

12:                                               ; preds = %2
  ret void

13:                                               ; preds = %2
  %14 = landingpad { ptr, i32 }
          cleanup
  %15 = extractvalue { ptr, i32 } %14, 0
  store ptr %15, ptr %5, align 8
  %16 = extractvalue { ptr, i32 } %14, 1
  store i32 %16, ptr %6, align 4
  call void @_ZN5zxing12ErrorHandlerD2Ev(ptr noundef nonnull align 8 dereferenceable(48) %7) #4
  br label %17

17:                                               ; preds = %13
  %18 = load ptr, ptr %5, align 8
  %19 = load i32, ptr %6, align 4
  %20 = insertvalue { ptr, i32 } poison, ptr %18, 0
  %21 = insertvalue { ptr, i32 } %20, i32 %19, 1
  resume { ptr, i32 } %21
}

; Function Attrs: mustprogress uwtable
define hidden noundef ptr @_ZN5zxing6qrcode7Version19getVersionForNumberEiRNS_12ErrorHandlerE(i32 noundef %0, ptr noundef nonnull align 8 dereferenceable(48) %1) #1 align 2 personality ptr @__gxx_personality_v0 {
  %3 = alloca ptr, align 8
  %4 = alloca i32, align 4
  %5 = alloca ptr, align 8
  %6 = alloca %"class.zxing::ReaderErrorHandler", align 8
  %7 = alloca ptr, align 8
  %8 = alloca i32, align 4
  store i32 %0, ptr %4, align 4
  store ptr %1, ptr %5, align 8
  %9 = load i32, ptr %4, align 4
  %10 = icmp slt i32 %9, 1
  br i1 %10, label %15, label %11

11:                                               ; preds = %2
  %12 = load i32, ptr %4, align 4
  %13 = load i32, ptr @_ZN5zxing6qrcodeL10N_VERSIONSE, align 4
  %14 = icmp sgt i32 %12, %13
  br i1 %14, label %15, label %23

15:                                               ; preds = %11, %2
  call void @_ZN5zxing18ReaderErrorHandlerC2EPKc(ptr noundef nonnull align 8 dereferenceable(48) %6, ptr noundef @.str)
  %16 = load ptr, ptr %5, align 8
  %17 = invoke noundef nonnull align 8 dereferenceable(48) ptr @_ZN5zxing12ErrorHandleraSERKS0_(ptr noundef nonnull align 8 dereferenceable(48) %16, ptr noundef nonnull align 8 dereferenceable(48) %6)
          to label %18 unwind label %19

18:                                               ; preds = %15
  call void @_ZN5zxing18ReaderErrorHandlerD2Ev(ptr noundef nonnull align 8 dereferenceable(48) %6) #4
  store ptr null, ptr %3, align 8
  br label %29

19:                                               ; preds = %15
  %20 = landingpad { ptr, i32 }
          cleanup
  %21 = extractvalue { ptr, i32 } %20, 0
  store ptr %21, ptr %7, align 8
  %22 = extractvalue { ptr, i32 } %20, 1
  store i32 %22, ptr %8, align 4
  call void @_ZN5zxing18ReaderErrorHandlerD2Ev(ptr noundef nonnull align 8 dereferenceable(48) %6) #4
  br label %31

23:                                               ; preds = %11
  %24 = load i32, ptr %4, align 4
  %25 = sub nsw i32 %24, 1
  %26 = sext i32 %25 to i64
  %27 = call noundef nonnull align 8 dereferenceable(8) ptr @_ZNSt6vectorIN5zxing3RefINS0_6qrcode7VersionEEESaIS4_EEixEm(ptr noundef nonnull align 8 dereferenceable(24) @_ZN5zxing6qrcode7Version8VERSIONSE, i64 noundef %26) #4
  %28 = call noundef ptr @_ZNK5zxing3RefINS_6qrcode7VersionEEcvPS2_Ev(ptr noundef nonnull align 8 dereferenceable(8) %27)
  store ptr %28, ptr %3, align 8
  br label %29

29:                                               ; preds = %23, %18
  %30 = load ptr, ptr %3, align 8
  ret ptr %30

31:                                               ; preds = %19
  %32 = load ptr, ptr %7, align 8
  %33 = load i32, ptr %8, align 4
  %34 = insertvalue { ptr, i32 } poison, ptr %32, 0
  %35 = insertvalue { ptr, i32 } %34, i32 %33, 1
  resume { ptr, i32 } %35
}