; Function Attrs: mustprogress uwtable
define hidden noundef ptr @_ZN5zxing6qrcode7Version19getVersionForNumberEiRNS_12ErrorHandlerE(i32 noundef %0, ptr noundef nonnull align 8 dereferenceable(48) %1) local_unnamed_addr #2 align 2 personality ptr @__gxx_personality_v0 {
  %3 = alloca %"class.zxing::ReaderErrorHandler", align 8
  %4 = icmp slt i32 %0, 1
  %5 = load i32, ptr @_ZN5zxing6qrcodeL10N_VERSIONSE, align 4
  %6 = icmp slt i32 %5, %0
  %or.cond = select i1 %4, i1 true, i1 %6
  br i1 %or.cond, label %7, label %15

7:                                                ; preds = %2
  call void @_ZN5zxing12ErrorHandlerC2EPKc(ptr noundef nonnull align 8 dereferenceable(48) %3, ptr noundef nonnull @.str)
  store ptr getelementptr inbounds inrange(-16, 64) (i8, ptr @_ZTVN5zxing18ReaderErrorHandlerE, i64 16), ptr %3, align 8
  %8 = getelementptr inbounds i8, ptr %3, i64 8
  store i32 3, ptr %8, align 8
  %9 = invoke noundef nonnull align 8 dereferenceable(48) ptr @_ZN5zxing12ErrorHandleraSERKS0_(ptr noundef nonnull align 8 dereferenceable(48) %1, ptr noundef nonnull align 8 dereferenceable(48) %3)
          to label %10 unwind label %12

10:                                               ; preds = %7
  store ptr getelementptr inbounds inrange(-16, 64) (i8, ptr @_ZTVN5zxing12ErrorHandlerE, i64 16), ptr %3, align 8
  %11 = getelementptr inbounds i8, ptr %3, i64 16
  call void @_ZNSt7__cxx1112basic_stringIcSt11char_traitsIcESaIcEED1Ev(ptr noundef nonnull align 8 dereferenceable(32) %11) #18
  br label %21

12:                                               ; preds = %7
  %13 = landingpad { ptr, i32 }
          cleanup
  store ptr getelementptr inbounds inrange(-16, 64) (i8, ptr @_ZTVN5zxing12ErrorHandlerE, i64 16), ptr %3, align 8
  %14 = getelementptr inbounds i8, ptr %3, i64 16
  call void @_ZNSt7__cxx1112basic_stringIcSt11char_traitsIcESaIcEED1Ev(ptr noundef nonnull align 8 dereferenceable(32) %14) #18
  resume { ptr, i32 } %13

15:                                               ; preds = %2
  %16 = load ptr, ptr @_ZN5zxing6qrcode7Version8VERSIONSE, align 8
  %17 = zext nneg i32 %0 to i64
  %18 = getelementptr %"class.zxing::Ref", ptr %16, i64 %17
  %19 = getelementptr i8, ptr %18, i64 -8
  %20 = load ptr, ptr %19, align 8
  br label %21

21:                                               ; preds = %15, %10
  %.0 = phi ptr [ null, %10 ], [ %20, %15 ]
  ret ptr %.0
}